; Function Attrs: mustprogress nofree norecurse nosync nounwind willreturn memory(read, inaccessiblemem: none) uwtable
define noundef i32 @_ZNK6icu_7713DecimalFormat14getPadPositionEv(ptr noundef nonnull readonly align 8 captures(none) dereferenceable(72) %0) unnamed_addr #13 align 2 {
  %2 = getelementptr inbounds nuw i8, ptr %0, i64 64
  %3 = load ptr, ptr %2, align 8, !tbaa !25
  %4 = icmp eq ptr %3, null
  br i1 %4, label %12, label %5

5:                                                ; preds = %1
  %6 = getelementptr inbounds nuw i8, ptr %3, i64 392
  %7 = load i8, ptr %6, align 4, !tbaa !144, !range !45, !noundef !49
  %8 = trunc nuw i8 %7 to i1
  br i1 %8, label %12, label %9

9:                                                ; preds = %5
  %10 = getelementptr inbounds nuw i8, ptr %3, i64 396
  %11 = load i32, ptr %10, align 4, !tbaa !145
  br label %12

12:                                               ; preds = %1, %5, %9
  %.0 = phi i32 [ %11, %9 ], [ 0, %5 ], [ 0, %1 ]
  ret i32 %.0
}